target datalayout = "e-m:e-p270:32:32-p271:32:32-p272:64:64-i64:64-i128:128-f80:128-n8:16:32:64-S128"
target triple = "x86_64-pc-linux-gnu"

%struct.dump_config = type { i64, i64, i64, ptr, ptr, i64, i64, i64, i64, i8, i32, i64, i64, i64, [4096 x i8] }
%struct.RFile = type { %struct.RBasic, ptr }
%struct.RBasic = type { i64, i64 }

; Function Attrs: inlinehint nounwind sspstrong willreturn memory(none) uwtable
define internal i64 @rbimpl_fix2long_by_idiv(i64 noundef %0) #4 {
  %2 = alloca i64, align 8
  %3 = alloca i64, align 8
  %4 = alloca i64, align 8
  %5 = alloca i64, align 8
  store i64 %0, ptr %2, align 8, !tbaa !6
  call void @llvm.lifetime.start.p0(i64 8, ptr %3) #21
  %6 = load i64, ptr %2, align 8, !tbaa !6
  %7 = sub i64 %6, 1
  store i64 %7, ptr %3, align 8, !tbaa !6
  call void @llvm.lifetime.start.p0(i64 8, ptr %4) #21
  %8 = load i64, ptr %3, align 8, !tbaa !6
  %9 = sdiv i64 %8, 2
  store i64 %9, ptr %4, align 8, !tbaa !6
  call void @llvm.lifetime.start.p0(i64 8, ptr %5) #21
  %10 = load i64, ptr %4, align 8, !tbaa !6
  store i64 %10, ptr %5, align 8, !tbaa !6
  %11 = load i64, ptr %5, align 8, !tbaa !6
  call void @llvm.lifetime.end.p0(i64 8, ptr %5) #21
  call void @llvm.lifetime.end.p0(i64 8, ptr %4) #21
  call void @llvm.lifetime.end.p0(i64 8, ptr %3) #21
  ret i64 %11
}

; Function Attrs: inlinehint nounwind sspstrong willreturn memory(none) uwtable
define internal i64 @rbimpl_fix2long_by_shift(i64 noundef %0) #4 {
  %2 = alloca i64, align 8
  %3 = alloca i64, align 8
  %4 = alloca i64, align 8
  %5 = alloca i64, align 8
  store i64 %0, ptr %2, align 8, !tbaa !6
  call void @llvm.lifetime.start.p0(i64 8, ptr %3) #21
  %6 = load i64, ptr %2, align 8, !tbaa !6
  store i64 %6, ptr %3, align 8, !tbaa !6
  call void @llvm.lifetime.start.p0(i64 8, ptr %4) #21
  %7 = load i64, ptr %3, align 8, !tbaa !6
  %8 = ashr i64 %7, 1
  store i64 %8, ptr %4, align 8, !tbaa !6
  call void @llvm.lifetime.start.p0(i64 8, ptr %5) #21
  %9 = load i64, ptr %4, align 8, !tbaa !6
  store i64 %9, ptr %5, align 8, !tbaa !6
  %10 = load i64, ptr %5, align 8, !tbaa !6
  call void @llvm.lifetime.end.p0(i64 8, ptr %5) #21
  call void @llvm.lifetime.end.p0(i64 8, ptr %4) #21
  call void @llvm.lifetime.end.p0(i64 8, ptr %3) #21
  ret i64 %10
}

; Function Attrs: inlinehint nounwind sspstrong willreturn memory(none) uwtable
define internal zeroext i1 @rbimpl_right_shift_is_arithmetic_p() #4 {
  ret i1 true
}

; Function Attrs: inlinehint nounwind sspstrong willreturn memory(none) uwtable
define internal i64 @rb_fix2long(i64 noundef %0) #4 {
  %2 = alloca i64, align 8
  %3 = alloca i64, align 8
  store i64 %0, ptr %3, align 8, !tbaa !6
  %4 = call zeroext i1 @rbimpl_right_shift_is_arithmetic_p() #22
  br i1 %4, label %5, label %8

5:                                                ; preds = %1
  %6 = load i64, ptr %3, align 8, !tbaa !6
  %7 = call i64 @rbimpl_fix2long_by_shift(i64 noundef %6) #22
  store i64 %7, ptr %2, align 8
  br label %11

8:                                                ; preds = %1
  %9 = load i64, ptr %3, align 8, !tbaa !6
  %10 = call i64 @rbimpl_fix2long_by_idiv(i64 noundef %9) #22
  store i64 %10, ptr %2, align 8
  br label %11

11:                                               ; preds = %8, %5
  %12 = load i64, ptr %2, align 8
  ret i64 %12
}

; Function Attrs: inlinehint nounwind sspstrong willreturn memory(none) uwtable
define internal zeroext i1 @RB_FLONUM_P(i64 noundef %0) #4 {
  %2 = alloca i64, align 8
  store i64 %0, ptr %2, align 8, !tbaa !6
  %3 = load i64, ptr %2, align 8, !tbaa !6
  %4 = and i64 %3, 3
  %5 = icmp eq i64 %4, 2
  ret i1 %5
}

; Function Attrs: inlinehint nounwind sspstrong willreturn memory(none) uwtable
define internal zeroext i1 @RB_STATIC_SYM_P(i64 noundef %0) #4 {
  %2 = alloca i64, align 8
  %3 = alloca i64, align 8
  store i64 %0, ptr %2, align 8, !tbaa !6
  call void @llvm.lifetime.start.p0(i64 8, ptr %3) #21
  store i64 255, ptr %3, align 8, !tbaa !6
  %4 = load i64, ptr %2, align 8, !tbaa !6
  %5 = and i64 %4, 255
  %6 = icmp eq i64 %5, 12
  call void @llvm.lifetime.end.p0(i64 8, ptr %3) #21
  ret i1 %6
}

; Function Attrs: inlinehint nounwind sspstrong willreturn memory(none) uwtable
define internal zeroext i1 @RB_FIXNUM_P(i64 noundef %0) #4 {
  %2 = alloca i64, align 8
  store i64 %0, ptr %2, align 8, !tbaa !6
  %3 = load i64, ptr %2, align 8, !tbaa !6
  %4 = and i64 %3, 1
  %5 = icmp ne i64 %4, 0
  ret i1 %5
}

; Function Attrs: inlinehint nounwind sspstrong willreturn memory(read) uwtable
define internal i32 @RB_BUILTIN_TYPE(i64 noundef %0) #5 {
  %2 = alloca i64, align 8
  %3 = alloca i64, align 8
  store i64 %0, ptr %2, align 8, !tbaa !6
  call void @llvm.lifetime.start.p0(i64 8, ptr %3) #21
  %4 = load i64, ptr %2, align 8, !tbaa !6
  %5 = inttoptr i64 %4 to ptr
  %6 = getelementptr inbounds nuw %struct.RBasic, ptr %5, i32 0, i32 0
  %7 = load i64, ptr %6, align 8, !tbaa !67
  %8 = and i64 %7, 31
  store i64 %8, ptr %3, align 8, !tbaa !6
  %9 = load i64, ptr %3, align 8, !tbaa !6
  %10 = trunc i64 %9 to i32
  call void @llvm.lifetime.end.p0(i64 8, ptr %3) #21
  ret i32 %10
}

; Function Attrs: inlinehint nounwind sspstrong uwtable
define internal i64 @rb_num2ull_inline(i64 noundef %0) #6 {
  %2 = alloca i64, align 8
  %3 = alloca i64, align 8
  store i64 %0, ptr %3, align 8, !tbaa !6
  %4 = load i64, ptr %3, align 8, !tbaa !6
  %5 = call zeroext i1 @RB_FIXNUM_P(i64 noundef %4) #22
  br i1 %5, label %6, label %9

6:                                                ; preds = %1
  %7 = load i64, ptr %3, align 8, !tbaa !6
  %8 = call i64 @rb_fix2long(i64 noundef %7) #22
  store i64 %8, ptr %2, align 8
  br label %12

9:                                                ; preds = %1
  %10 = load i64, ptr %3, align 8, !tbaa !6
  %11 = call i64 @rb_num2ull(i64 noundef %10)
  store i64 %11, ptr %2, align 8
  br label %12

12:                                               ; preds = %9, %6
  %13 = load i64, ptr %2, align 8
  ret i64 %13
}

; Function Attrs: inlinehint nounwind sspstrong willreturn memory(none) uwtable
define internal zeroext i1 @RB_TEST(i64 noundef %0) #4 {
  %2 = alloca i64, align 8
  store i64 %0, ptr %2, align 8, !tbaa !6
  %3 = load i64, ptr %2, align 8, !tbaa !6
  %4 = and i64 %3, -5
  %5 = icmp ne i64 %4, 0
  ret i1 %5
}

; Function Attrs: inlinehint nounwind sspstrong willreturn memory(read) uwtable
define internal i32 @rb_type(i64 noundef %0) #5 {
  %2 = alloca i32, align 4
  %3 = alloca i64, align 8
  store i64 %0, ptr %3, align 8, !tbaa !6
  %4 = load i64, ptr %3, align 8, !tbaa !6
  %5 = call zeroext i1 @RB_SPECIAL_CONST_P(i64 noundef %4) #22
  br i1 %5, label %9, label %6

6:                                                ; preds = %1
  %7 = load i64, ptr %3, align 8, !tbaa !6
  %8 = call i32 @RB_BUILTIN_TYPE(i64 noundef %7) #23
  store i32 %8, ptr %2, align 4
  br label %36

9:                                                ; preds = %1
  %10 = load i64, ptr %3, align 8, !tbaa !6
  %11 = icmp eq i64 %10, 0
  br i1 %11, label %12, label %13

12:                                               ; preds = %9
  store i32 19, ptr %2, align 4
  br label %36

13:                                               ; preds = %9
  %14 = load i64, ptr %3, align 8, !tbaa !6
  %15 = icmp eq i64 %14, 4
  br i1 %15, label %16, label %17

16:                                               ; preds = %13
  store i32 17, ptr %2, align 4
  br label %36

17:                                               ; preds = %13
  %18 = load i64, ptr %3, align 8, !tbaa !6
  %19 = icmp eq i64 %18, 20
  br i1 %19, label %20, label %21

20:                                               ; preds = %17
  store i32 18, ptr %2, align 4
  br label %36

21:                                               ; preds = %17
  %22 = load i64, ptr %3, align 8, !tbaa !6
  %23 = icmp eq i64 %22, 36
  br i1 %23, label %24, label %25

24:                                               ; preds = %21
  store i32 22, ptr %2, align 4
  br label %36

25:                                               ; preds = %21
  %26 = load i64, ptr %3, align 8, !tbaa !6
  %27 = call zeroext i1 @RB_FIXNUM_P(i64 noundef %26) #22
  br i1 %27, label %28, label %29

28:                                               ; preds = %25
  store i32 21, ptr %2, align 4
  br label %36

29:                                               ; preds = %25
  %30 = load i64, ptr %3, align 8, !tbaa !6
  %31 = call zeroext i1 @RB_STATIC_SYM_P(i64 noundef %30) #22
  br i1 %31, label %32, label %33

32:                                               ; preds = %29
  store i32 20, ptr %2, align 4
  br label %36

33:                                               ; preds = %29
  %34 = load i64, ptr %3, align 8, !tbaa !6
  %35 = call zeroext i1 @RB_FLONUM_P(i64 noundef %34) #22
  call void @llvm.assume(i1 %35)
  store i32 4, ptr %2, align 4
  br label %36

36:                                               ; preds = %33, %32, %28, %24, %20, %16, %12, %6
  %37 = load i32, ptr %2, align 4
  ret i32 %37
}

; Function Attrs: inlinehint nounwind sspstrong willreturn memory(none) uwtable
define internal zeroext i1 @RB_IMMEDIATE_P(i64 noundef %0) #4 {
  %2 = alloca i64, align 8
  store i64 %0, ptr %2, align 8, !tbaa !6
  %3 = load i64, ptr %2, align 8, !tbaa !6
  %4 = and i64 %3, 7
  %5 = icmp ne i64 %4, 0
  ret i1 %5
}

; Function Attrs: nounwind sspstrong uwtable
define internal void @dump_output(ptr noundef %0, i64 noundef %1, i64 noundef %2, i64 noundef %3, i64 noundef %4) #0 {
  %6 = alloca ptr, align 8
  %7 = alloca i64, align 8
  %8 = alloca i64, align 8
  %9 = alloca i64, align 8
  %10 = alloca i64, align 8
  %11 = alloca ptr, align 8
  store ptr %0, ptr %6, align 8, !tbaa !18
  store i64 %1, ptr %7, align 8, !tbaa !6
  store i64 %2, ptr %8, align 8, !tbaa !6
  store i64 %3, ptr %9, align 8, !tbaa !6
  store i64 %4, ptr %10, align 8, !tbaa !6
  %12 = load i64, ptr %7, align 8, !tbaa !6
  %13 = load ptr, ptr %6, align 8, !tbaa !18
  %14 = getelementptr inbounds nuw %struct.dump_config, ptr %13, i32 0, i32 0
  store i64 %12, ptr %14, align 8, !tbaa !20
  %15 = load ptr, ptr %6, align 8, !tbaa !18
  %16 = getelementptr inbounds nuw %struct.dump_config, ptr %15, i32 0, i32 9
  %17 = load i8, ptr %16, align 8
  %18 = and i8 %17, -3
  %19 = or i8 %18, 0
  store i8 %19, ptr %16, align 8
  %20 = load ptr, ptr %6, align 8, !tbaa !18
  %21 = getelementptr inbounds nuw %struct.dump_config, ptr %20, i32 0, i32 13
  store i64 0, ptr %21, align 8, !tbaa !21
  %22 = load i64, ptr %7, align 8, !tbaa !6
  %23 = call i32 @rb_type(i64 noundef %22) #23
  %24 = icmp eq i32 %23, 5
  br i1 %24, label %25, label %31

25:                                               ; preds = %5
  %26 = load ptr, ptr %6, align 8, !tbaa !18
  %27 = getelementptr inbounds nuw %struct.dump_config, ptr %26, i32 0, i32 3
  store ptr null, ptr %27, align 8, !tbaa !22
  %28 = load i64, ptr %7, align 8, !tbaa !6
  %29 = load ptr, ptr %6, align 8, !tbaa !18
  %30 = getelementptr inbounds nuw %struct.dump_config, ptr %29, i32 0, i32 2
  store i64 %28, ptr %30, align 8, !tbaa !23
  br label %55

31:                                               ; preds = %5
  call void @llvm.lifetime.start.p0(i64 8, ptr %11) #21
  %32 = load i64, ptr %7, align 8, !tbaa !6
  %33 = call i64 @rb_io_get_io(i64 noundef %32)
  store i64 %33, ptr %7, align 8, !tbaa !6
  %34 = load i64, ptr %7, align 8, !tbaa !6
  %35 = call i64 @rb_io_get_write_io(i64 noundef %34)
  %36 = load ptr, ptr %6, align 8, !tbaa !18
  %37 = getelementptr inbounds nuw %struct.dump_config, ptr %36, i32 0, i32 1
  store i64 %35, ptr %37, align 8, !tbaa !24
  %38 = load ptr, ptr %6, align 8, !tbaa !18
  %39 = getelementptr inbounds nuw %struct.dump_config, ptr %38, i32 0, i32 1
  %40 = load i64, ptr %39, align 8, !tbaa !24
  %41 = call i64 @rb_io_flush(i64 noundef %40)
  %42 = load ptr, ptr %6, align 8, !tbaa !18
  %43 = getelementptr inbounds nuw %struct.dump_config, ptr %42, i32 0, i32 1
  %44 = load i64, ptr %43, align 8, !tbaa !24
  %45 = call i64 @rb_io_taint_check(i64 noundef %44)
  %46 = inttoptr i64 %45 to ptr
  %47 = getelementptr inbounds nuw %struct.RFile, ptr %46, i32 0, i32 1
  %48 = load ptr, ptr %47, align 8, !tbaa !25
  store ptr %48, ptr %11, align 8, !tbaa !29
  call void @rb_io_check_closed(ptr noundef %48)
  %49 = load ptr, ptr %11, align 8, !tbaa !29
  %50 = call ptr @rb_io_stdio_file(ptr noundef %49)
  %51 = load ptr, ptr %6, align 8, !tbaa !18
  %52 = getelementptr inbounds nuw %struct.dump_config, ptr %51, i32 0, i32 3
  store ptr %50, ptr %52, align 8, !tbaa !22
  %53 = load ptr, ptr %6, align 8, !tbaa !18
  %54 = getelementptr inbounds nuw %struct.dump_config, ptr %53, i32 0, i32 2
  store i64 0, ptr %54, align 8, !tbaa !23
  call void @llvm.lifetime.end.p0(i64 8, ptr %11) #21
  br label %55

55:                                               ; preds = %31, %25
  %56 = load i64, ptr %8, align 8, !tbaa !6
  %57 = icmp eq i64 %56, 20
  br i1 %57, label %58, label %64

58:                                               ; preds = %55
  %59 = load ptr, ptr %6, align 8, !tbaa !18
  %60 = getelementptr inbounds nuw %struct.dump_config, ptr %59, i32 0, i32 9
  %61 = load i8, ptr %60, align 8
  %62 = and i8 %61, -3
  %63 = or i8 %62, 2
  store i8 %63, ptr %60, align 8
  br label %64

64:                                               ; preds = %58, %55
  %65 = load i64, ptr %9, align 8, !tbaa !6
  %66 = call zeroext i1 @RB_TEST(i64 noundef %65) #22
  br i1 %66, label %67, label %74

67:                                               ; preds = %64
  %68 = load ptr, ptr %6, align 8, !tbaa !18
  %69 = getelementptr inbounds nuw %struct.dump_config, ptr %68, i32 0, i32 10
  store i32 1, ptr %69, align 4, !tbaa !16
  %70 = load i64, ptr %9, align 8, !tbaa !6
  %71 = call i64 @rb_num2ull_inline(i64 noundef %70)
  %72 = load ptr, ptr %6, align 8, !tbaa !18
  %73 = getelementptr inbounds nuw %struct.dump_config, ptr %72, i32 0, i32 11
  store i64 %71, ptr %73, align 8, !tbaa !17
  br label %77

74:                                               ; preds = %64
  %75 = load ptr, ptr %6, align 8, !tbaa !18
  %76 = getelementptr inbounds nuw %struct.dump_config, ptr %75, i32 0, i32 10
  store i32 0, ptr %76, align 4, !tbaa !16
  br label %77

77:                                               ; preds = %74, %67
  %78 = load i64, ptr %10, align 8, !tbaa !6
  %79 = call zeroext i1 @RB_TEST(i64 noundef %78) #22
  br i1 %79, label %80, label %83

80:                                               ; preds = %77
  %81 = load i64, ptr %10, align 8, !tbaa !6
  %82 = call i64 @rb_num2ull_inline(i64 noundef %81)
  br label %84

83:                                               ; preds = %77
  br label %84

84:                                               ; preds = %83, %80
  %85 = phi i64 [ %82, %80 ], [ 0, %83 ]
  %86 = load ptr, ptr %6, align 8, !tbaa !18
  %87 = getelementptr inbounds nuw %struct.dump_config, ptr %86, i32 0, i32 12
  store i64 %85, ptr %87, align 8, !tbaa !30
  ret void
}

; Function Attrs: inlinehint nounwind sspstrong willreturn memory(none) uwtable
define internal zeroext i1 @RB_SPECIAL_CONST_P(i64 noundef %0) #4 {
  %2 = alloca i64, align 8
  store i64 %0, ptr %2, align 8, !tbaa !6
  %3 = load i64, ptr %2, align 8, !tbaa !6
  %4 = icmp eq i64 %3, 0
  br i1 %4, label %8, label %5

5:                                                ; preds = %1
  %6 = load i64, ptr %2, align 8, !tbaa !6
  %7 = call zeroext i1 @RB_IMMEDIATE_P(i64 noundef %6) #22
  br label %8

8:                                                ; preds = %5, %1
  %9 = phi i1 [ true, %1 ], [ %7, %5 ]
  ret i1 %9
}

; Function Attrs: nounwind sspstrong uwtable
define internal i64 @objspace_dump(i64 noundef %0, i64 noundef %1, i64 noundef %2) #0 {
  %4 = alloca i64, align 8
  %5 = alloca i64, align 8
  %6 = alloca i64, align 8
  %7 = alloca %struct.dump_config, align 8
  store i64 %0, ptr %4, align 8, !tbaa !6
  store i64 %1, ptr %5, align 8, !tbaa !6
  store i64 %2, ptr %6, align 8, !tbaa !6
  call void @llvm.lifetime.start.p0(i64 4200, ptr %7) #21
  call void @llvm.memset.p0.i64(ptr align 8 %7, i8 0, i64 4200, i1 false)
  %8 = load i64, ptr %5, align 8, !tbaa !6
  %9 = call zeroext i1 @RB_SPECIAL_CONST_P(i64 noundef %8) #22
  br i1 %9, label %14, label %10

10:                                               ; preds = %3
  %11 = load i64, ptr %5, align 8, !tbaa !6
  %12 = call i64 @rb_gc_obj_slot_size(i64 noundef %11)
  %13 = getelementptr inbounds nuw %struct.dump_config, ptr %7, i32 0, i32 7
  store i64 %12, ptr %13, align 8, !tbaa !10
  br label %14

14:                                               ; preds = %10, %3
  %15 = load i64, ptr %6, align 8, !tbaa !6
  call void @dump_output(ptr noundef %7, i64 noundef %15, i64 noundef 4, i64 noundef 4, i64 noundef 4)
  %16 = load i64, ptr %5, align 8, !tbaa !6
  call void @dump_object(i64 noundef %16, ptr noundef %7)
  %17 = call i64 @dump_result(ptr noundef %7)
  call void @llvm.lifetime.end.p0(i64 4200, ptr %7) #21
  ret i64 %17
}