; Function Attrs: nounwind sspstrong uwtable
define internal i64 @objspace_dump(i64 %0, i64 noundef %1, i64 noundef %2) #0 {
  %4 = alloca %struct.dump_config, align 8
  call void @llvm.lifetime.start.p0(i64 4200, ptr nonnull %4) #12
  %5 = getelementptr inbounds nuw i8, ptr %4, i64 8
  call void @llvm.memset.p0.i64(ptr noundef nonnull align 8 dereferenceable(4200) %5, i8 0, i64 4192, i1 false)
  %6 = icmp eq i64 %1, 0
  %7 = and i64 %1, 7
  %8 = icmp ne i64 %7, 0
  %9 = or i1 %6, %8
  br i1 %9, label %13, label %10

10:                                               ; preds = %3
  %11 = tail call i64 @rb_gc_obj_slot_size(i64 noundef %1) #12
  %12 = getelementptr inbounds nuw i8, ptr %4, i64 56
  store i64 %11, ptr %12, align 8, !tbaa !6
  br label %13

13:                                               ; preds = %10, %3
  store i64 %2, ptr %4, align 8, !tbaa !15
  %14 = getelementptr inbounds nuw i8, ptr %4, i64 72
  store i8 0, ptr %14, align 8
  %15 = getelementptr inbounds nuw i8, ptr %4, i64 96
  store i64 0, ptr %15, align 8, !tbaa !16
  %16 = icmp eq i64 %2, 0
  %17 = and i64 %2, 7
  %18 = icmp ne i64 %17, 0
  %19 = or i1 %16, %18
  br i1 %19, label %rb_type.exit.thread.i, label %rb_type.exit.i

rb_type.exit.i:                                   ; preds = %13
  %20 = inttoptr i64 %2 to ptr
  %21 = load i64, ptr %20, align 8, !tbaa !17
  %22 = and i64 %21, 31
  %23 = icmp eq i64 %22, 5
  br i1 %23, label %dump_output.exit, label %rb_type.exit.thread.i

rb_type.exit.thread.i:                            ; preds = %rb_type.exit.i, %13
  %24 = tail call i64 @rb_io_get_io(i64 noundef %2) #12
  %25 = tail call i64 @rb_io_get_write_io(i64 noundef %24) #12
  %26 = getelementptr inbounds nuw i8, ptr %4, i64 8
  store i64 %25, ptr %26, align 8, !tbaa !19
  %27 = tail call i64 @rb_io_flush(i64 noundef %25) #12
  %28 = tail call i64 @rb_io_taint_check(i64 noundef %25) #12
  %29 = inttoptr i64 %28 to ptr
  %30 = getelementptr inbounds nuw i8, ptr %29, i64 16
  %31 = load ptr, ptr %30, align 8, !tbaa !20
  tail call void @rb_io_check_closed(ptr noundef %31) #12
  %32 = tail call ptr @rb_io_stdio_file(ptr noundef %31) #12
  br label %dump_output.exit

dump_output.exit:                                 ; preds = %rb_type.exit.i, %rb_type.exit.thread.i
  %.sink33.i = phi ptr [ %32, %rb_type.exit.thread.i ], [ null, %rb_type.exit.i ]
  %.sink.i = phi i64 [ 0, %rb_type.exit.thread.i ], [ %2, %rb_type.exit.i ]
  %33 = getelementptr inbounds nuw i8, ptr %4, i64 24
  store ptr %.sink33.i, ptr %33, align 8, !tbaa !23
  %34 = getelementptr inbounds nuw i8, ptr %4, i64 16
  store i64 %.sink.i, ptr %34, align 8, !tbaa !24
  %35 = getelementptr inbounds nuw i8, ptr %4, i64 76
  store i32 0, ptr %35, align 4, !tbaa !25
  %36 = getelementptr inbounds nuw i8, ptr %4, i64 88
  store i64 0, ptr %36, align 8, !tbaa !26
  call fastcc void @dump_object(i64 noundef %1, ptr noundef nonnull %4)
  %37 = call fastcc i64 @dump_result(ptr noundef %4)
  call void @llvm.lifetime.end.p0(i64 4200, ptr nonnull %4) #12
  ret i64 %37
}